; Function Attrs: mustprogress uwtable
define hidden noundef ptr @_ZN7datalog17lazy_table_plugin24mk_filter_by_negation_fnERKNS_10table_baseES3_jPKjS5_(ptr noundef nonnull readnone align 8 captures(address) dereferenceable(40) %0, ptr noundef nonnull readonly align 8 captures(none) dereferenceable(36) %1, ptr noundef nonnull readonly align 8 captures(none) dereferenceable(36) %2, i32 noundef %3, ptr noundef readonly captures(none) %4, ptr noundef readonly captures(none) %5) unnamed_addr #3 align 2 personality ptr @__gxx_personality_v0 {
  %7 = getelementptr inbounds nuw i8, ptr %1, i64 8
  %8 = load ptr, ptr %7, align 8, !tbaa !59
  %9 = icmp eq ptr %8, %0
  %10 = getelementptr inbounds nuw i8, ptr %2, i64 8
  %11 = load ptr, ptr %10, align 8
  %12 = icmp eq ptr %11, %0
  %or.cond = select i1 %9, i1 %12, i1 false
  br i1 %or.cond, label %13, label %_ZN7datalog17lazy_table_plugin21filter_by_negation_fnC2EjPKjS3_.exit

13:                                               ; preds = %6
  %14 = tail call noalias noundef ptr @_ZN6memory8allocateEm(i64 noundef 24)
  store ptr getelementptr inbounds nuw inrange(-16, 24) (i8, ptr @_ZTVN7datalog17lazy_table_plugin21filter_by_negation_fnE, i64 16), ptr %14, align 8, !tbaa !27
  %15 = getelementptr inbounds nuw i8, ptr %14, i64 8
  store ptr null, ptr %15, align 8, !tbaa !60
  %.not.i.i.i = icmp eq i32 %3, 0
  br i1 %.not.i.i.i, label %_ZN7svectorIjjEC2EjPKj.exit.thread.i, label %.lr.ph.preheader.i.i.i

_ZN7svectorIjjEC2EjPKj.exit.thread.i:             ; preds = %13
  %16 = getelementptr inbounds nuw i8, ptr %14, i64 16
  store ptr null, ptr %16, align 8, !tbaa !60
  br label %_ZN7datalog17lazy_table_plugin21filter_by_negation_fnC2EjPKjS3_.exit

.lr.ph.preheader.i.i.i:                           ; preds = %13
  %wide.trip.count.i.i.i = zext i32 %3 to i64
  br label %.lr.ph.i.i.i

.lr.ph.i.i.i:                                     ; preds = %_ZN6vectorIjLb0EjE9push_backERKj.exit.i.i.i, %.lr.ph.preheader.i.i.i
  %17 = phi ptr [ null, %.lr.ph.preheader.i.i.i ], [ %26, %_ZN6vectorIjLb0EjE9push_backERKj.exit.i.i.i ]
  %indvars.iv.i.i.i = phi i64 [ 0, %.lr.ph.preheader.i.i.i ], [ %indvars.iv.next.i.i.i, %_ZN6vectorIjLb0EjE9push_backERKj.exit.i.i.i ]
  %18 = getelementptr inbounds nuw i32, ptr %4, i64 %indvars.iv.i.i.i
  %19 = icmp eq ptr %17, null
  br i1 %19, label %.noexc.i, label %20

20:                                               ; preds = %.lr.ph.i.i.i
  %21 = getelementptr inbounds i8, ptr %17, i64 -4
  %22 = load i32, ptr %21, align 4, !tbaa !42
  %23 = getelementptr inbounds i8, ptr %17, i64 -8
  %24 = load i32, ptr %23, align 4, !tbaa !42
  %25 = icmp eq i32 %22, %24
  br i1 %25, label %.noexc.i, label %_ZN6vectorIjLb0EjE9push_backERKj.exit.i.i.i

.noexc.i:                                         ; preds = %20, %.lr.ph.i.i.i
  tail call void @_ZN6vectorIjLb0EjE13expand_vectorEv(ptr noundef nonnull align 8 dereferenceable(8) %15)
  %.pre.i.i.i.i = load ptr, ptr %15, align 8, !tbaa !60
  %.phi.trans.insert.i.i.i.i = getelementptr inbounds i8, ptr %.pre.i.i.i.i, i64 -4
  %.pre2.i.i.i.i = load i32, ptr %.phi.trans.insert.i.i.i.i, align 4, !tbaa !42
  br label %_ZN6vectorIjLb0EjE9push_backERKj.exit.i.i.i

_ZN6vectorIjLb0EjE9push_backERKj.exit.i.i.i:      ; preds = %.noexc.i, %20
  %26 = phi ptr [ %.pre.i.i.i.i, %.noexc.i ], [ %17, %20 ]
  %27 = phi i32 [ %.pre2.i.i.i.i, %.noexc.i ], [ %22, %20 ]
  %28 = getelementptr inbounds i8, ptr %26, i64 -4
  %29 = zext i32 %27 to i64
  %30 = getelementptr inbounds nuw i32, ptr %26, i64 %29
  %31 = load i32, ptr %18, align 4, !tbaa !42
  store i32 %31, ptr %30, align 4, !tbaa !42
  %32 = add i32 %27, 1
  store i32 %32, ptr %28, align 4, !tbaa !42
  %indvars.iv.next.i.i.i = add nuw nsw i64 %indvars.iv.i.i.i, 1
  %exitcond.not.i.i.i = icmp eq i64 %indvars.iv.next.i.i.i, %wide.trip.count.i.i.i
  br i1 %exitcond.not.i.i.i, label %_ZN7svectorIjjEC2EjPKj.exit.i, label %.lr.ph.i.i.i, !llvm.loop !63

_ZN7svectorIjjEC2EjPKj.exit.i:                    ; preds = %_ZN6vectorIjLb0EjE9push_backERKj.exit.i.i.i
  %33 = getelementptr inbounds nuw i8, ptr %14, i64 16
  store ptr null, ptr %33, align 8, !tbaa !60
  br label %.lr.ph.i.i11.i

.lr.ph.i.i11.i:                                   ; preds = %_ZN6vectorIjLb0EjE9push_backERKj.exit.i.i13.i, %_ZN7svectorIjjEC2EjPKj.exit.i
  %34 = phi ptr [ null, %_ZN7svectorIjjEC2EjPKj.exit.i ], [ %44, %_ZN6vectorIjLb0EjE9push_backERKj.exit.i.i13.i ]
  %indvars.iv.i.i12.i = phi i64 [ 0, %_ZN7svectorIjjEC2EjPKj.exit.i ], [ %indvars.iv.next.i.i14.i, %_ZN6vectorIjLb0EjE9push_backERKj.exit.i.i13.i ]
  %35 = getelementptr inbounds nuw i32, ptr %5, i64 %indvars.iv.i.i12.i
  %36 = icmp eq ptr %34, null
  br i1 %36, label %43, label %37

37:                                               ; preds = %.lr.ph.i.i11.i
  %38 = getelementptr inbounds i8, ptr %34, i64 -4
  %39 = load i32, ptr %38, align 4, !tbaa !42
  %40 = getelementptr inbounds i8, ptr %34, i64 -8
  %41 = load i32, ptr %40, align 4, !tbaa !42
  %42 = icmp eq i32 %39, %41
  br i1 %42, label %43, label %_ZN6vectorIjLb0EjE9push_backERKj.exit.i.i13.i

43:                                               ; preds = %37, %.lr.ph.i.i11.i
  invoke void @_ZN6vectorIjLb0EjE13expand_vectorEv(ptr noundef nonnull align 8 dereferenceable(8) %33)
          to label %.noexc19.i unwind label %51

.noexc19.i:                                       ; preds = %43
  %.pre.i.i.i16.i = load ptr, ptr %33, align 8, !tbaa !60
  %.phi.trans.insert.i.i.i17.i = getelementptr inbounds i8, ptr %.pre.i.i.i16.i, i64 -4
  %.pre2.i.i.i18.i = load i32, ptr %.phi.trans.insert.i.i.i17.i, align 4, !tbaa !42
  br label %_ZN6vectorIjLb0EjE9push_backERKj.exit.i.i13.i

_ZN6vectorIjLb0EjE9push_backERKj.exit.i.i13.i:    ; preds = %.noexc19.i, %37
  %44 = phi ptr [ %.pre.i.i.i16.i, %.noexc19.i ], [ %34, %37 ]
  %45 = phi i32 [ %.pre2.i.i.i18.i, %.noexc19.i ], [ %39, %37 ]
  %46 = getelementptr inbounds i8, ptr %44, i64 -4
  %47 = zext i32 %45 to i64
  %48 = getelementptr inbounds nuw i32, ptr %44, i64 %47
  %49 = load i32, ptr %35, align 4, !tbaa !42
  store i32 %49, ptr %48, align 4, !tbaa !42
  %50 = add i32 %45, 1
  store i32 %50, ptr %46, align 4, !tbaa !42
  %indvars.iv.next.i.i14.i = add nuw nsw i64 %indvars.iv.i.i12.i, 1
  %exitcond.not.i.i15.i = icmp eq i64 %indvars.iv.next.i.i14.i, %wide.trip.count.i.i.i
  br i1 %exitcond.not.i.i15.i, label %_ZN7datalog17lazy_table_plugin21filter_by_negation_fnC2EjPKjS3_.exit, label %.lr.ph.i.i11.i, !llvm.loop !63

51:                                               ; preds = %43
  %52 = landingpad { ptr, i32 }
          cleanup
  tail call void @_ZN6vectorIjLb0EjED2Ev(ptr noundef nonnull align 8 dereferenceable(8) %15) #22
  resume { ptr, i32 } %52

_ZN7datalog17lazy_table_plugin21filter_by_negation_fnC2EjPKjS3_.exit: ; preds = %_ZN6vectorIjLb0EjE9push_backERKj.exit.i.i13.i, %_ZN7svectorIjjEC2EjPKj.exit.thread.i, %6
  %.0 = phi ptr [ null, %6 ], [ %14, %_ZN7svectorIjjEC2EjPKj.exit.thread.i ], [ %14, %_ZN6vectorIjLb0EjE9push_backERKj.exit.i.i13.i ]
  ret ptr %.0
}